target datalayout = "e-m:e-p270:32:32-p271:32:32-p272:64:64-i64:64-i128:128-f80:128-n8:16:32:64-S128"
target triple = "x86_64-pc-linux-gnu"

%struct._address = type { i32, i32, ptr, ptr }

@.str.6 = private unnamed_addr constant [10 x i8] c"Anonymous\00", align 1
@.str.89 = private unnamed_addr constant [10 x i8] c"Broadcast\00", align 1

; Function Attrs: null_pointer_is_valid sspstrong uwtable
define internal i32 @UAVCAN_addr_to_str(ptr noundef %0, ptr noundef %1, i32 noundef %2) #0 {
  %4 = alloca i32, align 4
  %5 = alloca ptr, align 8
  %6 = alloca ptr, align 8
  %7 = alloca i32, align 4
  %8 = alloca ptr, align 8
  %9 = alloca i32, align 4
  %10 = alloca i8, align 1
  store ptr %0, ptr %5, align 8
  store ptr %1, ptr %6, align 8
  store i32 %2, ptr %7, align 4
  call void @llvm.lifetime.start.p0(i64 8, ptr %8) #10
  %11 = load ptr, ptr %5, align 8
  %12 = getelementptr inbounds nuw %struct._address, ptr %11, i32 0, i32 2
  %13 = load ptr, ptr %12, align 8
  store ptr %13, ptr %8, align 8
  %14 = load ptr, ptr %8, align 8
  %15 = load i16, ptr %14, align 2
  %16 = zext i16 %15 to i32
  %17 = and i32 %16, 32768
  %18 = icmp ne i32 %17, 0
  br i1 %18, label %19, label %26

19:                                               ; preds = %3
  %20 = load ptr, ptr %6, align 8
  %21 = load i32, ptr %7, align 4
  %22 = sext i32 %21 to i64
  %23 = load ptr, ptr %6, align 8
  %24 = call i64 @llvm.objectsize.i64.p0(ptr %23, i1 false, i1 true, i1 true)
  %25 = call i32 (ptr, i64, i32, i64, ptr, ...) @__snprintf_chk(ptr noundef %20, i64 noundef %22, i32 noundef 2, i64 noundef %24, ptr noundef @.str.6)
  store i32 %25, ptr %4, align 4
  store i32 1, ptr %9, align 4
  br label %53

26:                                               ; preds = %3
  %27 = load ptr, ptr %8, align 8
  %28 = load i16, ptr %27, align 2
  %29 = zext i16 %28 to i32
  %30 = and i32 %29, 16384
  %31 = icmp ne i32 %30, 0
  br i1 %31, label %32, label %39

32:                                               ; preds = %26
  %33 = load ptr, ptr %6, align 8
  %34 = load i32, ptr %7, align 4
  %35 = sext i32 %34 to i64
  %36 = load ptr, ptr %6, align 8
  %37 = call i64 @llvm.objectsize.i64.p0(ptr %36, i1 false, i1 true, i1 true)
  %38 = call i32 (ptr, i64, i32, i64, ptr, ...) @__snprintf_chk(ptr noundef %33, i64 noundef %35, i32 noundef 2, i64 noundef %37, ptr noundef @.str.89)
  store i32 %38, ptr %4, align 4
  store i32 1, ptr %9, align 4
  br label %53

39:                                               ; preds = %26
  call void @llvm.lifetime.start.p0(i64 1, ptr %10) #10
  %40 = load ptr, ptr %8, align 8
  %41 = load i16, ptr %40, align 2
  %42 = zext i16 %41 to i32
  %43 = and i32 %42, 255
  %44 = trunc i32 %43 to i8
  store i8 %44, ptr %10, align 1
  %45 = load i8, ptr %10, align 1
  %46 = zext i8 %45 to i32
  %47 = load ptr, ptr %6, align 8
  %48 = load i32, ptr %7, align 4
  %49 = sext i32 %48 to i64
  call void @uint32_to_str_buf(i32 noundef %46, ptr noundef %47, i64 noundef %49)
  %50 = load ptr, ptr %6, align 8
  %51 = call i64 @strlen(ptr noundef %50) #13
  %52 = trunc i64 %51 to i32
  store i32 %52, ptr %4, align 4
  store i32 1, ptr %9, align 4
  call void @llvm.lifetime.end.p0(i64 1, ptr %10) #10
  br label %53

53:                                               ; preds = %39, %32, %19
  call void @llvm.lifetime.end.p0(i64 8, ptr %8) #10
  %54 = load i32, ptr %4, align 4
  ret i32 %54
}