; Function Attrs: null_pointer_is_valid sspstrong uwtable
define internal i32 @UAVCAN_addr_to_str(ptr noundef readonly captures(none) %0, ptr noundef %1, i32 noundef %2) #0 {
  %4 = getelementptr inbounds nuw i8, ptr %0, i64 8
  %5 = load ptr, ptr %4, align 8
  %6 = load i16, ptr %5, align 2
  %.not = icmp sgt i16 %6, -1
  br i1 %.not, label %10, label %7

7:                                                ; preds = %3
  %8 = sext i32 %2 to i64
  %9 = tail call i32 (ptr, i64, i32, i64, ptr, ...) @__snprintf_chk(ptr noundef %1, i64 noundef %8, i32 noundef 2, i64 noundef -1, ptr noundef nonnull @.str.6)
  br label %20

10:                                               ; preds = %3
  %.not14 = icmp samesign ult i16 %6, 16384
  br i1 %.not14, label %14, label %11

11:                                               ; preds = %10
  %12 = sext i32 %2 to i64
  %13 = tail call i32 (ptr, i64, i32, i64, ptr, ...) @__snprintf_chk(ptr noundef %1, i64 noundef %12, i32 noundef 2, i64 noundef -1, ptr noundef nonnull @.str.89)
  br label %20

14:                                               ; preds = %10
  %15 = and i16 %6, 255
  %16 = zext nneg i16 %15 to i32
  %17 = sext i32 %2 to i64
  tail call void @uint32_to_str_buf(i32 noundef %16, ptr noundef %1, i64 noundef %17)
  %18 = tail call i64 @strlen(ptr noundef %1) #11
  %19 = trunc i64 %18 to i32
  br label %20

20:                                               ; preds = %14, %11, %7
  %.0 = phi i32 [ %9, %7 ], [ %13, %11 ], [ %19, %14 ]
  ret i32 %.0
}